target datalayout = "e-m:e-p270:32:32-p271:32:32-p272:64:64-i64:64-i128:128-f80:128-n8:16:32:64-S128"
target triple = "x86_64-pc-linux-gnu"

%class.XStatUnsampledCounter = type { %class.XStatIterableValue.2 }
%class.XStatIterableValue.2 = type { %class.XStatValue, ptr }
%class.XStatValue = type { ptr, ptr, i32, i32 }
%class.TruncatedSeq = type { %class.AbsSeq, ptr, i32, i32 }
%class.AbsSeq = type { ptr, i32, double, double, double, double, double }
%"struct.Atomic::XchgImpl" = type { i8 }
%struct.XStatCounterData = type { i64 }
%"struct.Atomic::PlatformXchg" = type { i8 }

@_ZN10XStatValue5_baseE = hidden global i64 0, align 8
@_ZN10XStatValue11_cpu_offsetE = hidden global i32 0, align 4
@_ZN14XStatAllocRate8_counterE = hidden global %class.XStatUnsampledCounter zeroinitializer, align 8
@_ZN14XStatAllocRate8_samplesE = hidden global %class.TruncatedSeq zeroinitializer, align 8
@_ZN14XStatAllocRate5_rateE = hidden global %class.TruncatedSeq zeroinitializer, align 8
@_ZN2os16_processor_countE = external global i32, align 4

; Function Attrs: mustprogress nounwind uwtable
define linkonce_odr hidden noundef i64 @_ZNK6Atomic12PlatformXchgILm8EEclImEET_PVS3_S3_19atomic_memory_order(ptr noundef nonnull align 1 dereferenceable(1) %0, ptr noundef %1, i64 noundef %2, i32 noundef %3) #1 comdat align 2 {
  %5 = alloca ptr, align 8
  %6 = alloca ptr, align 8
  %7 = alloca i64, align 8
  %8 = alloca i32, align 4
  store ptr %0, ptr %5, align 8
  store ptr %1, ptr %6, align 8
  store i64 %2, ptr %7, align 8
  store i32 %3, ptr %8, align 4
  %9 = load i64, ptr %7, align 8
  %10 = load ptr, ptr %6, align 8
  %11 = call i64 asm sideeffect "xchgq ($2),$0", "=r,0,r,~{memory},~{dirflag},~{fpsr},~{flags}"(i64 %9, ptr %10) #4, !srcloc !24
  store i64 %11, ptr %7, align 8
  %12 = load i64, ptr %7, align 8
  ret i64 %12
}

; Function Attrs: mustprogress nounwind uwtable
define linkonce_odr hidden noundef i64 @_ZNK6Atomic8XchgImplImmvEclEPVmm19atomic_memory_order(ptr noundef nonnull align 1 dereferenceable(1) %0, ptr noundef %1, i64 noundef %2, i32 noundef %3) #1 comdat align 2 {
  %5 = alloca ptr, align 8
  %6 = alloca ptr, align 8
  %7 = alloca i64, align 8
  %8 = alloca i32, align 4
  %9 = alloca %"struct.Atomic::PlatformXchg", align 1
  store ptr %0, ptr %5, align 8
  store ptr %1, ptr %6, align 8
  store i64 %2, ptr %7, align 8
  store i32 %3, ptr %8, align 4
  %10 = load ptr, ptr %6, align 8
  %11 = load i64, ptr %7, align 8
  %12 = load i32, ptr %8, align 4
  %13 = call noundef i64 @_ZNK6Atomic12PlatformXchgILm8EEclImEET_PVS3_S3_19atomic_memory_order(ptr noundef nonnull align 1 dereferenceable(1) %9, ptr noundef %10, i64 noundef %11, i32 noundef %12)
  ret i64 %13
}

; Function Attrs: mustprogress nounwind uwtable
define linkonce_odr hidden noundef i32 @_ZN2os15processor_countEv() #1 comdat align 2 {
  %1 = load i32, ptr @_ZN2os16_processor_countE, align 4
  ret i32 %1
}

; Function Attrs: mustprogress nounwind uwtable
define linkonce_odr hidden noundef i64 @_ZN6Atomic4xchgImmEET_PVS1_T0_19atomic_memory_order(ptr noundef %0, i64 noundef %1, i32 noundef %2) #1 comdat align 2 {
  %4 = alloca ptr, align 8
  %5 = alloca i64, align 8
  %6 = alloca i32, align 4
  %7 = alloca %"struct.Atomic::XchgImpl", align 1
  store ptr %0, ptr %4, align 8
  store i64 %1, ptr %5, align 8
  store i32 %2, ptr %6, align 4
  %8 = load ptr, ptr %4, align 8
  %9 = load i64, ptr %5, align 8
  %10 = load i32, ptr %6, align 4
  %11 = call noundef i64 @_ZNK6Atomic8XchgImplImmvEclEPVmm19atomic_memory_order(ptr noundef nonnull align 1 dereferenceable(1) %7, ptr noundef %8, i64 noundef %9, i32 noundef %10)
  ret i64 %11
}

; Function Attrs: mustprogress nounwind uwtable
define linkonce_odr hidden noundef ptr @_ZNK10XStatValue13get_cpu_localI16XStatCounterDataEEPT_j(ptr noundef nonnull align 8 dereferenceable(24) %0, i32 noundef %1) #1 comdat align 2 {
  %3 = alloca ptr, align 8
  %4 = alloca i32, align 4
  %5 = alloca i64, align 8
  %6 = alloca i64, align 8
  store ptr %0, ptr %3, align 8
  store i32 %1, ptr %4, align 4
  %7 = load ptr, ptr %3, align 8
  %8 = load i64, ptr @_ZN10XStatValue5_baseE, align 8
  %9 = load i32, ptr @_ZN10XStatValue11_cpu_offsetE, align 4
  %10 = load i32, ptr %4, align 4
  %11 = mul i32 %9, %10
  %12 = zext i32 %11 to i64
  %13 = add i64 %8, %12
  store i64 %13, ptr %5, align 8
  %14 = load i64, ptr %5, align 8
  %15 = getelementptr inbounds %class.XStatValue, ptr %7, i32 0, i32 3
  %16 = load i32, ptr %15, align 4
  %17 = zext i32 %16 to i64
  %18 = add i64 %14, %17
  store i64 %18, ptr %6, align 8
  %19 = load i64, ptr %6, align 8
  %20 = inttoptr i64 %19 to ptr
  ret ptr %20
}

; Function Attrs: mustprogress nounwind uwtable
define linkonce_odr hidden noundef i32 @_ZN4XCPU5countEv() #1 comdat align 2 {
  %1 = call noundef i32 @_ZN2os15processor_countEv()
  ret i32 %1
}

; Function Attrs: mustprogress nounwind uwtable
define linkonce_odr hidden void @_ZN16XStatCounterDataC2Ev(ptr noundef nonnull align 8 dereferenceable(8) %0) unnamed_addr #1 comdat align 2 {
  %2 = alloca ptr, align 8
  store ptr %0, ptr %2, align 8
  %3 = load ptr, ptr %2, align 8
  %4 = getelementptr inbounds %struct.XStatCounterData, ptr %3, i32 0, i32 0
  store i64 0, ptr %4, align 8
  ret void
}

; Function Attrs: mustprogress nounwind uwtable
define linkonce_odr hidden noundef double @_ZNK6AbsSeq3sumEv(ptr noundef nonnull align 8 dereferenceable(56) %0) #1 comdat align 2 {
  %2 = alloca ptr, align 8
  store ptr %0, ptr %2, align 8
  %3 = load ptr, ptr %2, align 8
  %4 = getelementptr inbounds %class.AbsSeq, ptr %3, i32 0, i32 2
  %5 = load double, ptr %4, align 8
  ret double %5
}

; Function Attrs: mustprogress nounwind uwtable
define hidden i64 @_ZNK21XStatUnsampledCounter17collect_and_resetEv(ptr noundef nonnull align 8 dereferenceable(32) %0) #1 align 2 {
  %2 = alloca %struct.XStatCounterData, align 8
  %3 = alloca ptr, align 8
  %4 = alloca i32, align 4
  %5 = alloca i32, align 4
  %6 = alloca ptr, align 8
  store ptr %0, ptr %3, align 8
  %7 = load ptr, ptr %3, align 8
  call void @_ZN16XStatCounterDataC2Ev(ptr noundef nonnull align 8 dereferenceable(8) %2)
  %8 = call noundef i32 @_ZN4XCPU5countEv()
  store i32 %8, ptr %4, align 4
  store i32 0, ptr %5, align 4
  br label %9

9:                                                ; preds = %22, %1
  %10 = load i32, ptr %5, align 4
  %11 = load i32, ptr %4, align 4
  %12 = icmp ult i32 %10, %11
  br i1 %12, label %13, label %25

13:                                               ; preds = %9
  %14 = load i32, ptr %5, align 4
  %15 = call noundef ptr @_ZNK10XStatValue13get_cpu_localI16XStatCounterDataEEPT_j(ptr noundef nonnull align 8 dereferenceable(24) %7, i32 noundef %14)
  store ptr %15, ptr %6, align 8
  %16 = load ptr, ptr %6, align 8
  %17 = getelementptr inbounds %struct.XStatCounterData, ptr %16, i32 0, i32 0
  %18 = call noundef i64 @_ZN6Atomic4xchgImmEET_PVS1_T0_19atomic_memory_order(ptr noundef %17, i64 noundef 0, i32 noundef 8)
  %19 = getelementptr inbounds %struct.XStatCounterData, ptr %2, i32 0, i32 0
  %20 = load i64, ptr %19, align 8
  %21 = add i64 %20, %18
  store i64 %21, ptr %19, align 8
  br label %22

22:                                               ; preds = %13
  %23 = load i32, ptr %5, align 4
  %24 = add i32 %23, 1
  store i32 %24, ptr %5, align 4
  br label %9, !llvm.loop !10

25:                                               ; preds = %9
  %26 = getelementptr inbounds %struct.XStatCounterData, ptr %2, i32 0, i32 0
  %27 = load i64, ptr %26, align 8
  ret i64 %27
}

; Function Attrs: mustprogress nounwind uwtable
define hidden noundef i64 @_ZN14XStatAllocRate16sample_and_resetEv() #1 align 2 {
  %1 = alloca %struct.XStatCounterData, align 8
  %2 = alloca i64, align 8
  %3 = call i64 @_ZNK21XStatUnsampledCounter17collect_and_resetEv(ptr noundef nonnull align 8 dereferenceable(32) @_ZN14XStatAllocRate8_counterE)
  %4 = getelementptr inbounds %struct.XStatCounterData, ptr %1, i32 0, i32 0
  store i64 %3, ptr %4, align 8
  %5 = getelementptr inbounds %struct.XStatCounterData, ptr %1, i32 0, i32 0
  %6 = load i64, ptr %5, align 8
  %7 = uitofp i64 %6 to double
  call void @_ZN12TruncatedSeq3addEd(ptr noundef nonnull align 8 dereferenceable(72) @_ZN14XStatAllocRate8_samplesE, double noundef %7)
  %8 = call noundef double @_ZNK6AbsSeq3sumEv(ptr noundef nonnull align 8 dereferenceable(56) @_ZN14XStatAllocRate8_samplesE)
  %9 = fptoui double %8 to i64
  store i64 %9, ptr %2, align 8
  %10 = load i64, ptr %2, align 8
  %11 = uitofp i64 %10 to double
  call void @_ZN12TruncatedSeq3addEd(ptr noundef nonnull align 8 dereferenceable(72) @_ZN14XStatAllocRate5_rateE, double noundef %11)
  %12 = load i64, ptr %2, align 8
  ret i64 %12
}