; Function Attrs: mustprogress nounwind uwtable
define hidden noundef i64 @_ZN14XStatAllocRate16sample_and_resetEv() local_unnamed_addr #0 align 2 {
  %1 = load i32, ptr @_ZN2os16_processor_countE, align 4
  %.not.i = icmp eq i32 %1, 0
  br i1 %.not.i, label %_ZNK21XStatUnsampledCounter17collect_and_resetEv.exit, label %.lr.ph.i

.lr.ph.i:                                         ; preds = %0, %.lr.ph.i
  %.07.i = phi i32 [ %13, %.lr.ph.i ], [ 0, %0 ]
  %.sroa.0.06.i = phi i64 [ %12, %.lr.ph.i ], [ 0, %0 ]
  %2 = load i64, ptr @_ZN10XStatValue5_baseE, align 8
  %3 = load i32, ptr @_ZN10XStatValue11_cpu_offsetE, align 4
  %4 = mul i32 %3, %.07.i
  %5 = zext i32 %4 to i64
  %6 = add i64 %2, %5
  %7 = load i32, ptr getelementptr inbounds (i8, ptr @_ZN14XStatAllocRate8_counterE, i64 20), align 4
  %8 = zext i32 %7 to i64
  %9 = add i64 %6, %8
  %10 = inttoptr i64 %9 to ptr
  %11 = tail call noundef i64 asm sideeffect "xchgq ($2),$0", "=r,0,r,~{memory},~{dirflag},~{fpsr},~{flags}"(i64 0, ptr %10) #22, !srcloc !6
  %12 = add i64 %11, %.sroa.0.06.i
  %13 = add nuw i32 %.07.i, 1
  %exitcond.not.i = icmp eq i32 %13, %1
  br i1 %exitcond.not.i, label %_ZNK21XStatUnsampledCounter17collect_and_resetEv.exit.loopexit, label %.lr.ph.i, !llvm.loop !13

_ZNK21XStatUnsampledCounter17collect_and_resetEv.exit.loopexit: ; preds = %.lr.ph.i
  %14 = uitofp i64 %12 to double
  br label %_ZNK21XStatUnsampledCounter17collect_and_resetEv.exit

_ZNK21XStatUnsampledCounter17collect_and_resetEv.exit: ; preds = %_ZNK21XStatUnsampledCounter17collect_and_resetEv.exit.loopexit, %0
  %.sroa.0.0.lcssa.i = phi double [ 0.000000e+00, %0 ], [ %14, %_ZNK21XStatUnsampledCounter17collect_and_resetEv.exit.loopexit ]
  tail call void @_ZN12TruncatedSeq3addEd(ptr noundef nonnull align 8 dereferenceable(72) @_ZN14XStatAllocRate8_samplesE, double noundef %.sroa.0.0.lcssa.i) #22
  %15 = load double, ptr getelementptr inbounds (i8, ptr @_ZN14XStatAllocRate8_samplesE, i64 16), align 8
  %16 = fptoui double %15 to i64
  %17 = uitofp i64 %16 to double
  tail call void @_ZN12TruncatedSeq3addEd(ptr noundef nonnull align 8 dereferenceable(72) @_ZN14XStatAllocRate5_rateE, double noundef %17) #22
  ret i64 %16
}